target datalayout = "e-m:e-p270:32:32-p271:32:32-p272:64:64-i64:64-i128:128-f80:128-n8:16:32:64-S128"
target triple = "x86_64-unknown-linux-gnu"

%"class.std::__cxx11::basic_string" = type { %"struct.std::__cxx11::basic_string<char>::_Alloc_hider", i64, %union.anon }
%"struct.std::__cxx11::basic_string<char>::_Alloc_hider" = type { ptr }
%union.anon = type { i64, [8 x i8] }
%"class.base::HistogramBase" = type <{ ptr, %"class.std::__cxx11::basic_string", i32, [4 x i8] }>

@_ZN4base13HistogramBase17report_histogram_E = dso_local global ptr null, align 8

; Function Attrs: mustprogress uwtable
define dso_local void @_ZN4base13HistogramBase23ReportHistogramActivityERKS0_NS0_14ReportActivityE(ptr noundef nonnull align 8 dereferenceable(44) %histogram, i32 noundef %activity) #0 align 2 {
entry:
  %histogram.addr = alloca ptr, align 8
  %activity.addr = alloca i32, align 4
  %flags = alloca i32, align 4
  %report_type = alloca i32, align 4
  store ptr %histogram, ptr %histogram.addr, align 8
  store i32 %activity, ptr %activity.addr, align 4
  %0 = load ptr, ptr @_ZN4base13HistogramBase17report_histogram_E, align 8
  %tobool = icmp ne ptr %0, null
  br i1 %tobool, label %if.end, label %if.then

if.then:                                          ; preds = %entry
  br label %sw.epilog29

if.end:                                           ; preds = %entry
  %1 = load ptr, ptr %histogram.addr, align 8
  %flags_ = getelementptr inbounds %"class.base::HistogramBase", ptr %1, i32 0, i32 2
  %2 = load i32, ptr %flags_, align 8
  store i32 %2, ptr %flags, align 4
  store i32 11, ptr %report_type, align 4
  %3 = load i32, ptr %activity.addr, align 4
  switch i32 %3, label %sw.epilog29 [
    i32 0, label %sw.bb
    i32 1, label %sw.bb26
  ]

sw.bb:                                            ; preds = %if.end
  %4 = load ptr, ptr @_ZN4base13HistogramBase17report_histogram_E, align 8
  %vtable = load ptr, ptr %4, align 8
  %vfn = getelementptr inbounds ptr, ptr %vtable, i64 5
  %5 = load ptr, ptr %vfn, align 8
  call void %5(ptr noundef nonnull align 8 dereferenceable(44) %4, i32 noundef 1)
  %6 = load ptr, ptr %histogram.addr, align 8
  %vtable1 = load ptr, ptr %6, align 8
  %vfn2 = getelementptr inbounds ptr, ptr %vtable1, i64 3
  %7 = load ptr, ptr %vfn2, align 8
  %call = call noundef i32 %7(ptr noundef nonnull align 8 dereferenceable(44) %6)
  switch i32 %call, label %sw.epilog [
    i32 0, label %sw.bb3
    i32 1, label %sw.bb4
    i32 2, label %sw.bb5
    i32 3, label %sw.bb6
    i32 4, label %sw.bb7
  ]

sw.bb3:                                           ; preds = %sw.bb
  store i32 3, ptr %report_type, align 4
  br label %sw.epilog

sw.bb4:                                           ; preds = %sw.bb
  store i32 4, ptr %report_type, align 4
  br label %sw.epilog

sw.bb5:                                           ; preds = %sw.bb
  store i32 5, ptr %report_type, align 4
  br label %sw.epilog

sw.bb6:                                           ; preds = %sw.bb
  store i32 6, ptr %report_type, align 4
  br label %sw.epilog

sw.bb7:                                           ; preds = %sw.bb
  store i32 7, ptr %report_type, align 4
  br label %sw.epilog

sw.epilog:                                        ; preds = %sw.bb7, %sw.bb6, %sw.bb5, %sw.bb4, %sw.bb3, %sw.bb
  %8 = load ptr, ptr @_ZN4base13HistogramBase17report_histogram_E, align 8
  %9 = load i32, ptr %report_type, align 4
  %vtable8 = load ptr, ptr %8, align 8
  %vfn9 = getelementptr inbounds ptr, ptr %vtable8, i64 5
  %10 = load ptr, ptr %vfn9, align 8
  call void %10(ptr noundef nonnull align 8 dereferenceable(44) %8, i32 noundef %9)
  %11 = load i32, ptr %flags, align 4
  %and = and i32 %11, 64
  %tobool10 = icmp ne i32 %and, 0
  br i1 %tobool10, label %if.then11, label %if.end14

if.then11:                                        ; preds = %sw.epilog
  %12 = load ptr, ptr @_ZN4base13HistogramBase17report_histogram_E, align 8
  %vtable12 = load ptr, ptr %12, align 8
  %vfn13 = getelementptr inbounds ptr, ptr %vtable12, i64 5
  %13 = load ptr, ptr %vfn13, align 8
  call void %13(ptr noundef nonnull align 8 dereferenceable(44) %12, i32 noundef 10)
  br label %if.end14

if.end14:                                         ; preds = %if.then11, %sw.epilog
  %14 = load i32, ptr %flags, align 4
  %and15 = and i32 %14, 3
  %cmp = icmp eq i32 %and15, 3
  br i1 %cmp, label %if.then16, label %if.else

if.then16:                                        ; preds = %if.end14
  %15 = load ptr, ptr @_ZN4base13HistogramBase17report_histogram_E, align 8
  %vtable17 = load ptr, ptr %15, align 8
  %vfn18 = getelementptr inbounds ptr, ptr %vtable17, i64 5
  %16 = load ptr, ptr %vfn18, align 8
  call void %16(ptr noundef nonnull align 8 dereferenceable(44) %15, i32 noundef 9)
  br label %if.end25

if.else:                                          ; preds = %if.end14
  %17 = load i32, ptr %flags, align 4
  %and19 = and i32 %17, 1
  %tobool20 = icmp ne i32 %and19, 0
  br i1 %tobool20, label %if.then21, label %if.end24

if.then21:                                        ; preds = %if.else
  %18 = load ptr, ptr @_ZN4base13HistogramBase17report_histogram_E, align 8
  %vtable22 = load ptr, ptr %18, align 8
  %vfn23 = getelementptr inbounds ptr, ptr %vtable22, i64 5
  %19 = load ptr, ptr %vfn23, align 8
  call void %19(ptr noundef nonnull align 8 dereferenceable(44) %18, i32 noundef 8)
  br label %if.end24

if.end24:                                         ; preds = %if.then21, %if.else
  br label %if.end25

if.end25:                                         ; preds = %if.end24, %if.then16
  br label %sw.epilog29

sw.bb26:                                          ; preds = %if.end
  %20 = load ptr, ptr @_ZN4base13HistogramBase17report_histogram_E, align 8
  %vtable27 = load ptr, ptr %20, align 8
  %vfn28 = getelementptr inbounds ptr, ptr %vtable27, i64 5
  %21 = load ptr, ptr %vfn28, align 8
  call void %21(ptr noundef nonnull align 8 dereferenceable(44) %20, i32 noundef 2)
  br label %sw.epilog29

sw.epilog29:                                      ; preds = %sw.bb26, %if.end25, %if.end, %if.then
  ret void
}