; Function Attrs: mustprogress uwtable
define dso_local void @_ZN4base13HistogramBase23ReportHistogramActivityERKS0_NS0_14ReportActivityE(ptr noundef nonnull align 8 dereferenceable(44) %histogram, i32 noundef %activity) local_unnamed_addr #0 align 2 {
entry:
  %0 = load ptr, ptr @_ZN4base13HistogramBase17report_histogram_E, align 8
  %tobool.not = icmp eq ptr %0, null
  br i1 %tobool.not, label %sw.epilog29, label %if.end

if.end:                                           ; preds = %entry
  %flags_ = getelementptr inbounds i8, ptr %histogram, i64 40
  %1 = load i32, ptr %flags_, align 8
  switch i32 %activity, label %sw.epilog29 [
    i32 0, label %sw.bb
    i32 1, label %sw.bb26
  ]

sw.bb:                                            ; preds = %if.end
  %vtable = load ptr, ptr %0, align 8
  %vfn = getelementptr inbounds i8, ptr %vtable, i64 40
  %2 = load ptr, ptr %vfn, align 8
  tail call void %2(ptr noundef nonnull align 8 dereferenceable(44) %0, i32 noundef 1)
  %vtable1 = load ptr, ptr %histogram, align 8
  %vfn2 = getelementptr inbounds i8, ptr %vtable1, i64 24
  %3 = load ptr, ptr %vfn2, align 8
  %call = tail call noundef i32 %3(ptr noundef nonnull align 8 dereferenceable(44) %histogram)
  %4 = icmp ult i32 %call, 5
  %switch.offset = add nsw i32 %call, 3
  %spec.select = select i1 %4, i32 %switch.offset, i32 11
  %5 = load ptr, ptr @_ZN4base13HistogramBase17report_histogram_E, align 8
  %vtable8 = load ptr, ptr %5, align 8
  %vfn9 = getelementptr inbounds i8, ptr %vtable8, i64 40
  %6 = load ptr, ptr %vfn9, align 8
  tail call void %6(ptr noundef nonnull align 8 dereferenceable(44) %5, i32 noundef %spec.select)
  %and = and i32 %1, 64
  %tobool10.not = icmp eq i32 %and, 0
  br i1 %tobool10.not, label %if.end14, label %if.then11

if.then11:                                        ; preds = %sw.bb
  %7 = load ptr, ptr @_ZN4base13HistogramBase17report_histogram_E, align 8
  %vtable12 = load ptr, ptr %7, align 8
  %vfn13 = getelementptr inbounds i8, ptr %vtable12, i64 40
  %8 = load ptr, ptr %vfn13, align 8
  tail call void %8(ptr noundef nonnull align 8 dereferenceable(44) %7, i32 noundef 10)
  br label %if.end14

if.end14:                                         ; preds = %if.then11, %sw.bb
  %and15 = and i32 %1, 3
  %cmp = icmp eq i32 %and15, 3
  br i1 %cmp, label %if.then16, label %if.else

if.then16:                                        ; preds = %if.end14
  %9 = load ptr, ptr @_ZN4base13HistogramBase17report_histogram_E, align 8
  %vtable17 = load ptr, ptr %9, align 8
  %vfn18 = getelementptr inbounds i8, ptr %vtable17, i64 40
  %10 = load ptr, ptr %vfn18, align 8
  tail call void %10(ptr noundef nonnull align 8 dereferenceable(44) %9, i32 noundef 9)
  br label %sw.epilog29

if.else:                                          ; preds = %if.end14
  %and19 = and i32 %1, 1
  %tobool20.not = icmp eq i32 %and19, 0
  br i1 %tobool20.not, label %sw.epilog29, label %if.then21

if.then21:                                        ; preds = %if.else
  %11 = load ptr, ptr @_ZN4base13HistogramBase17report_histogram_E, align 8
  %vtable22 = load ptr, ptr %11, align 8
  %vfn23 = getelementptr inbounds i8, ptr %vtable22, i64 40
  %12 = load ptr, ptr %vfn23, align 8
  tail call void %12(ptr noundef nonnull align 8 dereferenceable(44) %11, i32 noundef 8)
  br label %sw.epilog29

sw.bb26:                                          ; preds = %if.end
  %vtable27 = load ptr, ptr %0, align 8
  %vfn28 = getelementptr inbounds i8, ptr %vtable27, i64 40
  %13 = load ptr, ptr %vfn28, align 8
  tail call void %13(ptr noundef nonnull align 8 dereferenceable(44) %0, i32 noundef 2)
  br label %sw.epilog29

sw.epilog29:                                      ; preds = %if.then16, %if.then21, %if.else, %entry, %sw.bb26, %if.end
  ret void
}